target datalayout = "e-m:e-p270:32:32-p271:32:32-p272:64:64-i64:64-i128:128-f80:128-n8:16:32:64-S128"
target triple = "x86_64-pc-linux-gnu"

; Function Attrs: mustprogress nounwind uwtable
define dso_local noundef zeroext i1 @_ZNSt3__131__arrive_barrier_algorithm_baseEPNS_24__barrier_algorithm_baseEh(ptr noundef %0, i8 noundef zeroext %1) #3 personality ptr @__gxx_personality_v0 {
  %3 = alloca ptr, align 8
  %4 = alloca i8, align 1
  store ptr %0, ptr %3, align 8, !tbaa !9
  store i8 %1, ptr %4, align 1, !tbaa !13
  %5 = load ptr, ptr %3, align 8, !tbaa !9
  %6 = load i8, ptr %4, align 1, !tbaa !13
  %7 = invoke noundef zeroext i1 @_ZNSt3__124__barrier_algorithm_base8__arriveEh(ptr noundef nonnull align 8 dereferenceable(16) %5, i8 noundef zeroext %6)
          to label %8 unwind label %9

8:                                                ; preds = %2
  ret i1 %7

9:                                                ; preds = %2
  %10 = landingpad { ptr, i32 }
          catch ptr null
  %11 = extractvalue { ptr, i32 } %10, 0
  call void @__clang_call_terminate(ptr %11) #13
  unreachable
}