; Function Attrs: mustprogress nounwind uwtable
define dso_local noundef zeroext i1 @_ZNSt3__131__arrive_barrier_algorithm_baseEPNS_24__barrier_algorithm_baseEh(ptr noundef nonnull %0, i8 noundef zeroext %1) local_unnamed_addr #3 personality ptr @__gxx_personality_v0 {
  %3 = invoke noundef zeroext i1 @_ZNSt3__124__barrier_algorithm_base8__arriveEh(ptr noundef nonnull align 8 dereferenceable(16) %0, i8 noundef zeroext %1)
          to label %4 unwind label %5

4:                                                ; preds = %2
  ret i1 %3

5:                                                ; preds = %2
  %6 = landingpad { ptr, i32 }
          catch ptr null
  %7 = extractvalue { ptr, i32 } %6, 0
  tail call void @__clang_call_terminate(ptr %7) #10
  unreachable
}